target datalayout = "e-m:e-p270:32:32-p271:32:32-p272:64:64-i64:64-i128:128-f80:128-n8:16:32:64-S128"
target triple = "x86_64-pc-linux-gnu"

%struct.RBasic = type { i64, i64 }
%struct.RString = type { %struct.RBasic, i64, %union.anon }
%union.anon = type { %struct.anon.0 }
%struct.anon.0 = type { ptr, %union.anon.1 }
%union.anon.1 = type { i64 }
%struct.anon.2 = type { [1 x i8] }

@id_digest = internal global i64 0, align 8
@hexencode_str_new.hex = internal constant [16 x i8] c"0123456789abcdef", align 16
@rb_eRuntimeError = external global i64, align 8
@.str.25 = private unnamed_addr constant [23 x i8] c"digest string too long\00", align 1

; Function Attrs: inlinehint nounwind sspstrong willreturn memory(read) uwtable
define internal i64 @RB_FL_TEST_RAW(i64 noundef %0, i64 noundef %1) #3 {
  %3 = alloca i64, align 8
  %4 = alloca i64, align 8
  store i64 %0, ptr %3, align 8, !tbaa !10
  store i64 %1, ptr %4, align 8, !tbaa !10
  %5 = load i64, ptr %3, align 8, !tbaa !10
  %6 = inttoptr i64 %5 to ptr
  %7 = getelementptr inbounds nuw %struct.RBasic, ptr %6, i32 0, i32 0
  %8 = load i64, ptr %7, align 8, !tbaa !36
  %9 = load i64, ptr %4, align 8, !tbaa !10
  %10 = and i64 %8, %9
  ret i64 %10
}

; Function Attrs: inlinehint nounwind sspstrong willreturn memory(read) uwtable
define internal zeroext i1 @RB_FL_ANY_RAW(i64 noundef %0, i64 noundef %1) #3 {
  %3 = alloca i64, align 8
  %4 = alloca i64, align 8
  store i64 %0, ptr %3, align 8, !tbaa !10
  store i64 %1, ptr %4, align 8, !tbaa !10
  %5 = load i64, ptr %3, align 8, !tbaa !10
  %6 = load i64, ptr %4, align 8, !tbaa !10
  %7 = call i64 @RB_FL_TEST_RAW(i64 noundef %5, i64 noundef %6) #19
  %8 = icmp ne i64 %7, 0
  ret i1 %8
}

; Function Attrs: inlinehint nounwind sspstrong willreturn memory(read, argmem: readwrite) uwtable
define internal void @rbimpl_rstring_getmem(ptr dead_on_unwind noalias writable sret(%struct.RString) align 8 %0, i64 noundef %1) #8 {
  %3 = alloca i64, align 8
  store i64 %1, ptr %3, align 8, !tbaa !10
  %4 = load i64, ptr %3, align 8, !tbaa !10
  %5 = call zeroext i1 @RB_FL_ANY_RAW(i64 noundef %4, i64 noundef 8192) #19
  br i1 %5, label %6, label %9

6:                                                ; preds = %2
  %7 = load i64, ptr %3, align 8, !tbaa !10
  %8 = inttoptr i64 %7 to ptr
  call void @llvm.memcpy.p0.p0.i64(ptr align 8 %0, ptr align 8 %8, i64 40, i1 false), !tbaa.struct !35
  br label %20

9:                                                ; preds = %2
  %10 = load i64, ptr %3, align 8, !tbaa !10
  %11 = call i64 @RSTRING_LEN(i64 noundef %10) #19
  %12 = getelementptr inbounds nuw %struct.RString, ptr %0, i32 0, i32 1
  store i64 %11, ptr %12, align 8, !tbaa !33
  %13 = load i64, ptr %3, align 8, !tbaa !10
  %14 = inttoptr i64 %13 to ptr
  %15 = getelementptr inbounds nuw %struct.RString, ptr %14, i32 0, i32 2
  %16 = getelementptr inbounds nuw %struct.anon.2, ptr %15, i32 0, i32 0
  %17 = getelementptr inbounds [1 x i8], ptr %16, i64 0, i64 0
  %18 = getelementptr inbounds nuw %struct.RString, ptr %0, i32 0, i32 2
  %19 = getelementptr inbounds nuw %struct.anon.0, ptr %18, i32 0, i32 0
  store ptr %17, ptr %19, align 8, !tbaa !29
  br label %20

20:                                               ; preds = %9, %6
  ret void
}

; Function Attrs: inlinehint nounwind sspstrong willreturn memory(read) uwtable
define internal i64 @RSTRING_LEN(i64 noundef %0) #3 {
  %2 = alloca i64, align 8
  store i64 %0, ptr %2, align 8, !tbaa !10
  %3 = load i64, ptr %2, align 8, !tbaa !10
  %4 = inttoptr i64 %3 to ptr
  %5 = getelementptr inbounds nuw %struct.RString, ptr %4, i32 0, i32 1
  %6 = load i64, ptr %5, align 8, !tbaa !33
  ret i64 %6
}

; Function Attrs: inlinehint nounwind sspstrong uwtable
define internal ptr @RSTRING_PTR(i64 noundef %0) #2 {
  %2 = alloca i64, align 8
  %3 = alloca ptr, align 8
  %4 = alloca %struct.RString, align 8
  store i64 %0, ptr %2, align 8, !tbaa !10
  call void @llvm.lifetime.start.p0(i64 8, ptr %3) #21
  %5 = load i64, ptr %2, align 8, !tbaa !10
  call void @rbimpl_rstring_getmem(ptr dead_on_unwind writable sret(%struct.RString) align 8 %4, i64 noundef %5) #23
  %6 = getelementptr inbounds nuw %struct.RString, ptr %4, i32 0, i32 2
  %7 = getelementptr inbounds nuw %struct.anon.0, ptr %6, i32 0, i32 0
  %8 = load ptr, ptr %7, align 8, !tbaa !29
  store ptr %8, ptr %3, align 8, !tbaa !12
  %9 = load ptr, ptr %3, align 8, !tbaa !12
  call void @llvm.lifetime.end.p0(i64 8, ptr %3) #21
  ret ptr %9
}

; Function Attrs: nounwind sspstrong uwtable
define internal i64 @hexencode_str_new(i64 noundef %0) #0 {
  %2 = alloca i64, align 8
  %3 = alloca ptr, align 8
  %4 = alloca i64, align 8
  %5 = alloca i64, align 8
  %6 = alloca i64, align 8
  %7 = alloca ptr, align 8
  %8 = alloca i8, align 1
  %9 = alloca ptr, align 8
  %10 = alloca ptr, align 8
  store i64 %0, ptr %2, align 8, !tbaa !10
  call void @llvm.lifetime.start.p0(i64 8, ptr %3) #21
  call void @llvm.lifetime.start.p0(i64 8, ptr %4) #21
  call void @llvm.lifetime.start.p0(i64 8, ptr %5) #21
  call void @llvm.lifetime.start.p0(i64 8, ptr %6) #21
  call void @llvm.lifetime.start.p0(i64 8, ptr %7) #21
  %11 = call i64 @rb_string_value(ptr noundef %2)
  %12 = load i64, ptr %2, align 8, !tbaa !10
  %13 = call ptr @RSTRING_PTR(i64 noundef %12)
  store ptr %13, ptr %3, align 8, !tbaa !12
  %14 = load i64, ptr %2, align 8, !tbaa !10
  %15 = call i64 @RSTRING_LEN(i64 noundef %14) #19
  store i64 %15, ptr %4, align 8, !tbaa !10
  %16 = load i64, ptr %4, align 8, !tbaa !10
  %17 = icmp ult i64 4611686018427387903, %16
  br i1 %17, label %18, label %20

18:                                               ; preds = %1
  %19 = load i64, ptr @rb_eRuntimeError, align 8, !tbaa !10
  call void (i64, ptr, ...) @rb_raise(i64 noundef %19, ptr noundef @.str.25) #20
  unreachable

20:                                               ; preds = %1
  %21 = load i64, ptr %4, align 8, !tbaa !10
  %22 = mul i64 %21, 2
  %23 = call i1 @llvm.is.constant.i64(i64 %22)
  %24 = select i1 %23, ptr @rb_usascii_str_new_static, ptr @rb_usascii_str_new
  %25 = load i64, ptr %4, align 8, !tbaa !10
  %26 = mul i64 %25, 2
  %27 = call i64 %24(ptr noundef null, i64 noundef %26)
  store i64 %27, ptr %6, align 8, !tbaa !10
  store i64 0, ptr %5, align 8, !tbaa !10
  %28 = load i64, ptr %6, align 8, !tbaa !10
  %29 = call ptr @RSTRING_PTR(i64 noundef %28)
  store ptr %29, ptr %7, align 8, !tbaa !12
  br label %30

30:                                               ; preds = %62, %20
  %31 = load i64, ptr %5, align 8, !tbaa !10
  %32 = load i64, ptr %4, align 8, !tbaa !10
  %33 = icmp ult i64 %31, %32
  br i1 %33, label %34, label %65

34:                                               ; preds = %30
  call void @llvm.lifetime.start.p0(i64 1, ptr %8) #21
  %35 = load ptr, ptr %3, align 8, !tbaa !12
  %36 = load i64, ptr %5, align 8, !tbaa !10
  %37 = getelementptr inbounds nuw i8, ptr %35, i64 %36
  %38 = load i8, ptr %37, align 1, !tbaa !29
  store i8 %38, ptr %8, align 1, !tbaa !29
  %39 = load i8, ptr %8, align 1, !tbaa !29
  %40 = zext i8 %39 to i32
  %41 = ashr i32 %40, 4
  %42 = sext i32 %41 to i64
  %43 = getelementptr inbounds [16 x i8], ptr @hexencode_str_new.hex, i64 0, i64 %42
  %44 = load i8, ptr %43, align 1, !tbaa !29
  %45 = load ptr, ptr %7, align 8, !tbaa !12
  %46 = load i64, ptr %5, align 8, !tbaa !10
  %47 = load i64, ptr %5, align 8, !tbaa !10
  %48 = add i64 %46, %47
  %49 = getelementptr inbounds nuw i8, ptr %45, i64 %48
  store i8 %44, ptr %49, align 1, !tbaa !29
  %50 = load i8, ptr %8, align 1, !tbaa !29
  %51 = zext i8 %50 to i32
  %52 = and i32 %51, 15
  %53 = sext i32 %52 to i64
  %54 = getelementptr inbounds [16 x i8], ptr @hexencode_str_new.hex, i64 0, i64 %53
  %55 = load i8, ptr %54, align 1, !tbaa !29
  %56 = load ptr, ptr %7, align 8, !tbaa !12
  %57 = load i64, ptr %5, align 8, !tbaa !10
  %58 = load i64, ptr %5, align 8, !tbaa !10
  %59 = add i64 %57, %58
  %60 = add i64 %59, 1
  %61 = getelementptr inbounds nuw i8, ptr %56, i64 %60
  store i8 %55, ptr %61, align 1, !tbaa !29
  call void @llvm.lifetime.end.p0(i64 1, ptr %8) #21
  br label %62

62:                                               ; preds = %34
  %63 = load i64, ptr %5, align 8, !tbaa !10
  %64 = add i64 %63, 1
  store i64 %64, ptr %5, align 8, !tbaa !10
  br label %30, !llvm.loop !30

65:                                               ; preds = %30
  call void @llvm.lifetime.start.p0(i64 8, ptr %9) #21
  store ptr %2, ptr %9, align 8, !tbaa !16
  call void asm sideeffect "", "*m,~{dirflag},~{fpsr},~{flags}"(ptr elementtype(ptr) %9) #21, !srcloc !32
  %66 = load ptr, ptr %9, align 8, !tbaa !16
  store ptr %66, ptr %10, align 8, !tbaa !16
  call void @llvm.lifetime.end.p0(i64 8, ptr %9) #21
  %67 = load ptr, ptr %10, align 8, !tbaa !16
  %68 = load volatile i64, ptr %67, align 8, !tbaa !10
  %69 = load i64, ptr %6, align 8, !tbaa !10
  call void @llvm.lifetime.end.p0(i64 8, ptr %7) #21
  call void @llvm.lifetime.end.p0(i64 8, ptr %6) #21
  call void @llvm.lifetime.end.p0(i64 8, ptr %5) #21
  call void @llvm.lifetime.end.p0(i64 8, ptr %4) #21
  call void @llvm.lifetime.end.p0(i64 8, ptr %3) #21
  ret i64 %69
}

; Function Attrs: nounwind sspstrong uwtable
define internal i64 @rb_digest_class_s_hexdigest(i32 noundef %0, ptr noundef %1, i64 noundef %2) #0 {
  %4 = alloca i32, align 4
  %5 = alloca ptr, align 8
  %6 = alloca i64, align 8
  store i32 %0, ptr %4, align 4, !tbaa !14
  store ptr %1, ptr %5, align 8, !tbaa !16
  store i64 %2, ptr %6, align 8, !tbaa !10
  %7 = load i64, ptr %6, align 8, !tbaa !10
  %8 = load i64, ptr @id_digest, align 8, !tbaa !10
  %9 = load i32, ptr %4, align 4, !tbaa !14
  %10 = load ptr, ptr %5, align 8, !tbaa !16
  %11 = call i64 @rb_funcallv(i64 noundef %7, i64 noundef %8, i32 noundef %9, ptr noundef %10)
  %12 = call i64 @hexencode_str_new(i64 noundef %11)
  ret i64 %12
}