; Function Attrs: nounwind sspstrong uwtable
define internal i64 @rb_digest_class_s_hexdigest(i32 noundef %0, ptr noundef %1, i64 noundef %2) #0 {
  %4 = alloca i64, align 8
  %5 = alloca ptr, align 8
  %6 = load i64, ptr @id_digest, align 8, !tbaa !6
  %7 = tail call i64 @rb_funcallv(i64 noundef %2, i64 noundef %6, i32 noundef %0, ptr noundef %1) #9
  call void @llvm.lifetime.start.p0(i64 8, ptr nonnull %4)
  store i64 %7, ptr %4, align 8, !tbaa !6
  %8 = call i64 @rb_string_value(ptr noundef nonnull %4) #9
  %9 = load i64, ptr %4, align 8, !tbaa !6
  %10 = inttoptr i64 %9 to ptr
  %11 = load i64, ptr %10, align 8, !tbaa !10, !noalias !46
  %12 = and i64 %11, 8192
  %.not.i.i.i = icmp eq i64 %12, 0
  %13 = getelementptr inbounds nuw i8, ptr %10, i64 24
  br i1 %.not.i.i.i, label %RSTRING_PTR.exit.i, label %14

14:                                               ; preds = %3
  %.sroa.2.0.copyload.i.i = load ptr, ptr %13, align 8
  br label %RSTRING_PTR.exit.i

RSTRING_PTR.exit.i:                               ; preds = %14, %3
  %.sroa.2.0.i.i = phi ptr [ %.sroa.2.0.copyload.i.i, %14 ], [ %13, %3 ]
  %15 = getelementptr inbounds nuw i8, ptr %10, i64 16
  %16 = load i64, ptr %15, align 8, !tbaa !15
  %17 = icmp ugt i64 %16, 4611686018427387903
  br i1 %17, label %18, label %20

18:                                               ; preds = %RSTRING_PTR.exit.i
  %19 = load i64, ptr @rb_eRuntimeError, align 8, !tbaa !6
  call void (i64, ptr, ...) @rb_raise(i64 noundef %19, ptr noundef nonnull @.str.25) #10
  unreachable

20:                                               ; preds = %RSTRING_PTR.exit.i
  %21 = shl nuw nsw i64 %16, 1
  %22 = call i64 @rb_usascii_str_new(ptr noundef null, i64 noundef %21) #9, !callees !17
  %23 = inttoptr i64 %22 to ptr
  %24 = load i64, ptr %23, align 8, !tbaa !10, !noalias !49
  %25 = and i64 %24, 8192
  %.not.i.i19.i = icmp eq i64 %25, 0
  %26 = getelementptr inbounds nuw i8, ptr %23, i64 24
  br i1 %.not.i.i19.i, label %RSTRING_PTR.exit22.i, label %27

27:                                               ; preds = %20
  %.sroa.2.0.copyload.i20.i = load ptr, ptr %26, align 8
  br label %RSTRING_PTR.exit22.i

RSTRING_PTR.exit22.i:                             ; preds = %27, %20
  %.sroa.2.0.i21.i = phi ptr [ %.sroa.2.0.copyload.i20.i, %27 ], [ %26, %20 ]
  %.not.i = icmp eq i64 %16, 0
  br i1 %.not.i, label %hexencode_str_new.exit, label %.lr.ph.i

.lr.ph.i:                                         ; preds = %RSTRING_PTR.exit22.i, %.lr.ph.i
  %.023.i = phi i64 [ %43, %.lr.ph.i ], [ 0, %RSTRING_PTR.exit22.i ]
  %28 = getelementptr inbounds nuw i8, ptr %.sroa.2.0.i.i, i64 %.023.i
  %29 = load i8, ptr %28, align 1, !tbaa !21
  %30 = zext i8 %29 to i32
  %31 = lshr i32 %30, 4
  %32 = zext nneg i32 %31 to i64
  %33 = getelementptr inbounds nuw [16 x i8], ptr @hexencode_str_new.hex, i64 0, i64 %32
  %34 = load i8, ptr %33, align 1, !tbaa !21
  %35 = shl nuw nsw i64 %.023.i, 1
  %36 = getelementptr inbounds nuw i8, ptr %.sroa.2.0.i21.i, i64 %35
  store i8 %34, ptr %36, align 1, !tbaa !21
  %37 = and i32 %30, 15
  %38 = zext nneg i32 %37 to i64
  %39 = getelementptr inbounds nuw [16 x i8], ptr @hexencode_str_new.hex, i64 0, i64 %38
  %40 = load i8, ptr %39, align 1, !tbaa !21
  %41 = or disjoint i64 %35, 1
  %42 = getelementptr inbounds nuw i8, ptr %.sroa.2.0.i21.i, i64 %41
  store i8 %40, ptr %42, align 1, !tbaa !21
  %43 = add nuw nsw i64 %.023.i, 1
  %exitcond.not.i = icmp eq i64 %43, %16
  br i1 %exitcond.not.i, label %hexencode_str_new.exit, label %.lr.ph.i, !llvm.loop !22

hexencode_str_new.exit:                           ; preds = %.lr.ph.i, %RSTRING_PTR.exit22.i
  call void @llvm.lifetime.start.p0(i64 8, ptr nonnull %5) #9
  store ptr %4, ptr %5, align 8, !tbaa !24
  call void asm sideeffect "", "*m,~{dirflag},~{fpsr},~{flags}"(ptr nonnull elementtype(ptr) %5) #9, !srcloc !27
  %44 = load ptr, ptr %5, align 8, !tbaa !24
  call void @llvm.lifetime.end.p0(i64 8, ptr nonnull %5) #9
  %45 = load volatile i64, ptr %44, align 8, !tbaa !6
  call void @llvm.lifetime.end.p0(i64 8, ptr nonnull %4)
  ret i64 %22
}